; Function Attrs: mustprogress nofree norecurse nosync nounwind willreturn memory(argmem: read) uwtable
define dso_local range(i32 1, 5) i32 @pg_mule_mblen(ptr noundef readonly captures(none) %0) #0 {
  %2 = load i8, ptr %0, align 1
  %3 = add i8 %2, 127
  %or.cond = icmp ult i8 %3, 13
  br i1 %or.cond, label %8, label %4

4:                                                ; preds = %1
  %5 = and i8 %2, -2
  %switch = icmp eq i8 %5, -102
  %6 = add i8 %2, 112
  %or.cond11 = icmp ult i8 %6, 10
  %or.cond14 = or i1 %switch, %or.cond11
  br i1 %or.cond14, label %8, label %7

7:                                                ; preds = %4
  %switch13 = icmp eq i8 %5, -100
  %spec.select = select i1 %switch13, i32 4, i32 1
  br label %8

8:                                                ; preds = %7, %4, %1
  %.0 = phi i32 [ 2, %1 ], [ 3, %4 ], [ %spec.select, %7 ]
  ret i32 %.0
}